target datalayout = "e-m:e-p270:32:32-p271:32:32-p272:64:64-i64:64-i128:128-f80:128-n8:16:32:64-S128"
target triple = "x86_64-pc-linux-gnu"

%"class.google::protobuf::io::ZeroCopyInputStream" = type { ptr }
%"class.google::protobuf::io::CopyingInputStreamAdaptor" = type <{ %"class.google::protobuf::io::ZeroCopyInputStream", ptr, i8, i8, [6 x i8], i64, %"class.std::unique_ptr", i32, i32, i32, [4 x i8] }>
%"class.std::unique_ptr" = type { %"struct.std::__uniq_ptr_data" }
%"struct.std::__uniq_ptr_data" = type { %"class.std::__uniq_ptr_impl" }
%"class.std::__uniq_ptr_impl" = type { %"class.std::tuple" }
%"class.std::tuple" = type { %"struct.std::_Tuple_impl" }
%"struct.std::_Tuple_impl" = type { %"struct.std::_Head_base.1" }
%"struct.std::_Head_base.1" = type { ptr }

; Function Attrs: mustprogress nounwind uwtable
define hidden noundef i64 @_ZNK6google8protobuf2io25CopyingInputStreamAdaptor9ByteCountEv(ptr noundef nonnull align 8 dereferenceable(52) %0) unnamed_addr #5 align 2 {
  %2 = alloca ptr, align 8
  store ptr %0, ptr %2, align 8, !tbaa !56
  %3 = load ptr, ptr %2, align 8
  %4 = getelementptr inbounds nuw %"class.google::protobuf::io::CopyingInputStreamAdaptor", ptr %3, i32 0, i32 5
  %5 = load i64, ptr %4, align 8, !tbaa !69
  %6 = getelementptr inbounds nuw %"class.google::protobuf::io::CopyingInputStreamAdaptor", ptr %3, i32 0, i32 9
  %7 = load i32, ptr %6, align 8, !tbaa !72
  %8 = sext i32 %7 to i64
  %9 = sub nsw i64 %5, %8
  ret i64 %9
}