; Function Attrs: mustprogress nofree norecurse nosync nounwind willreturn memory(argmem: read) uwtable
define hidden noundef i64 @_ZNK6google8protobuf2io25CopyingInputStreamAdaptor9ByteCountEv(ptr noundef nonnull readonly align 8 captures(none) dereferenceable(52) %0) unnamed_addr #7 align 2 {
  %2 = getelementptr inbounds nuw i8, ptr %0, i64 24
  %3 = load i64, ptr %2, align 8, !tbaa !54
  %4 = getelementptr inbounds nuw i8, ptr %0, i64 48
  %5 = load i32, ptr %4, align 8, !tbaa !50
  %6 = sext i32 %5 to i64
  %7 = sub nsw i64 %3, %6
  ret i64 %7
}